; Function Attrs: nounwind uwtable
define ptr @l_Lean_PersistentHashMap_forM___rarg(ptr noundef %0, ptr noundef readnone captures(none) %1, ptr noundef readnone captures(none) %2, ptr noundef readnone captures(none) %3, ptr noundef readnone captures(none) %4, ptr noundef %5, ptr noundef %6) local_unnamed_addr #2 {
  tail call void @lean_inc_heartbeat() #7
  %8 = tail call noalias ptr @mi_malloc_small(i64 noundef 32) #7
  %9 = icmp eq ptr %8, null
  br i1 %9, label %10, label %lean_alloc_closure.exit

10:                                               ; preds = %7
  tail call void @lean_internal_panic_out_of_memory() #8
  unreachable

lean_alloc_closure.exit:                          ; preds = %7
  %11 = getelementptr inbounds nuw i8, ptr %8, i64 4
  store i32 1, ptr %8, align 4, !tbaa !4
  store i32 -184549344, ptr %11, align 4
  %12 = getelementptr inbounds nuw i8, ptr %8, i64 8
  store ptr @l_Lean_PersistentHashMap_forM___rarg___lambda__1___boxed, ptr %12, align 8, !tbaa !9
  %13 = getelementptr inbounds nuw i8, ptr %8, i64 16
  store i16 4, ptr %13, align 8, !tbaa !14
  %14 = getelementptr inbounds nuw i8, ptr %8, i64 18
  store i16 1, ptr %14, align 2, !tbaa !14
  %15 = getelementptr inbounds nuw i8, ptr %8, i64 24
  store ptr %6, ptr %15, align 8, !tbaa !9
  %16 = tail call ptr @l_Lean_PersistentHashMap_foldlMAux___rarg(ptr noundef %0, ptr nonnull poison, ptr nonnull poison, ptr nonnull poison, ptr noundef nonnull %8, ptr noundef %5, ptr noundef nonnull inttoptr (i64 1 to ptr))
  ret ptr %16
}